; Function Attrs: nounwind uwtable
define void @Bmc_MnaCollect(ptr noundef %0, ptr noundef readonly captures(none) %1, ptr noundef initializes((4, 8)) %2, ptr noundef %3) local_unnamed_addr #0 {
  %5 = getelementptr inbounds nuw i8, ptr %2, i64 4
  store i32 0, ptr %5, align 4, !tbaa !28
  %6 = getelementptr i8, ptr %0, i64 32
  %.val17 = load ptr, ptr %6, align 8, !tbaa !32
  %7 = load i64, ptr %.val17, align 4
  %8 = or i64 %7, -9223372036854775808
  store i64 %8, ptr %.val17, align 4
  %.val16 = load ptr, ptr %6, align 8, !tbaa !32
  %9 = getelementptr inbounds nuw i8, ptr %.val16, i64 8
  store i32 1, ptr %9, align 4, !tbaa !33
  %10 = getelementptr i8, ptr %1, i64 4
  %.val21 = load i32, ptr %10, align 4, !tbaa !28
  %11 = icmp sgt i32 %.val21, 0
  br i1 %11, label %.lr.ph, label %.critedge

.lr.ph:                                           ; preds = %4
  %12 = getelementptr i8, ptr %1, i64 8
  br label %13

13:                                               ; preds = %.lr.ph, %14
  %indvars.iv = phi i64 [ 0, %.lr.ph ], [ %indvars.iv.next, %14 ]
  %.val19 = load ptr, ptr %6, align 8, !tbaa !32
  %.not = icmp eq ptr %.val19, null
  br i1 %.not, label %.critedge, label %14

14:                                               ; preds = %13
  %.val18 = load ptr, ptr %12, align 8, !tbaa !37
  %15 = getelementptr inbounds nuw i32, ptr %.val18, i64 %indvars.iv
  %16 = load i32, ptr %15, align 4, !tbaa !38
  %17 = sext i32 %16 to i64
  %18 = getelementptr inbounds %struct.Gia_Obj_t_, ptr %.val19, i64 %17
  %19 = load i64, ptr %18, align 4
  %20 = and i64 %19, 536870911
  %21 = sub nsw i64 0, %20
  %22 = getelementptr inbounds %struct.Gia_Obj_t_, ptr %18, i64 %21
  tail call void @Bmc_MnaCollect_rec(ptr noundef nonnull %0, ptr noundef nonnull %22, ptr noundef %2, ptr noundef %3)
  %23 = load i64, ptr %18, align 4
  %24 = and i64 %23, 536870911
  %25 = sub nsw i64 0, %24
  %26 = getelementptr inbounds %struct.Gia_Obj_t_, ptr %18, i64 %25, i32 1
  %27 = load i32, ptr %26, align 4, !tbaa !33
  %28 = trunc i64 %23 to i32
  %29 = lshr i32 %28, 29
  %30 = and i32 %29, 1
  %31 = icmp eq i32 %27, 3
  %32 = add nuw nsw i32 %30, 1
  %33 = icmp eq i32 %27, %32
  %..i = select i1 %33, i32 1, i32 2
  %.0.i = select i1 %31, i32 3, i32 %..i
  %34 = getelementptr inbounds nuw i8, ptr %18, i64 8
  store i32 %.0.i, ptr %34, align 4, !tbaa !33
  %indvars.iv.next = add nuw nsw i64 %indvars.iv, 1
  %.val = load i32, ptr %10, align 4, !tbaa !28
  %35 = sext i32 %.val to i64
  %36 = icmp slt i64 %indvars.iv.next, %35
  br i1 %36, label %13, label %.critedge, !llvm.loop !53

.critedge:                                        ; preds = %13, %14, %4
  ret void
}